target datalayout = "e-m:e-p270:32:32-p271:32:32-p272:64:64-i64:64-i128:128-f80:128-n8:16:32:64-S128"
target triple = "x86_64-pc-linux-gnu"

%class.anon = type { ptr, ptr }

@.str.26 = private unnamed_addr constant [57 x i8] c"Expression width %d exceeds implementation limit of %d!\0A\00", align 1

; Function Attrs: inlinehint mustprogress nounwind uwtable
define linkonce_odr noundef nonnull align 4 dereferenceable(4) ptr @_ZSt3maxIiERKT_S2_S2_(ptr noundef nonnull align 4 dereferenceable(4) %0, ptr noundef nonnull align 4 dereferenceable(4) %1) #7 comdat {
  %3 = alloca ptr, align 8
  %4 = alloca ptr, align 8
  %5 = alloca ptr, align 8
  store ptr %0, ptr %4, align 8, !tbaa !70
  store ptr %1, ptr %5, align 8, !tbaa !70
  %6 = load ptr, ptr %4, align 8, !tbaa !70
  %7 = load i32, ptr %6, align 4, !tbaa !11
  %8 = load ptr, ptr %5, align 8, !tbaa !70
  %9 = load i32, ptr %8, align 4, !tbaa !11
  %10 = icmp slt i32 %7, %9
  br i1 %10, label %11, label %13

11:                                               ; preds = %2
  %12 = load ptr, ptr %5, align 8, !tbaa !70
  store ptr %12, ptr %3, align 8
  br label %15

13:                                               ; preds = %2
  %14 = load ptr, ptr %4, align 8, !tbaa !70
  store ptr %14, ptr %3, align 8
  br label %15

15:                                               ; preds = %13, %11
  %16 = load ptr, ptr %3, align 8
  ret ptr %16
}

; Function Attrs: mustprogress uwtable
define void @_ZN5Yosys3AST7AstNode15detectSignWidthERiRbPb(ptr noundef nonnull align 8 dereferenceable(284) %0, ptr noundef nonnull align 4 dereferenceable(4) %1, ptr noundef nonnull align 1 dereferenceable(1) %2, ptr noundef %3) #4 align 2 {
  %5 = alloca ptr, align 8
  %6 = alloca ptr, align 8
  %7 = alloca ptr, align 8
  %8 = alloca ptr, align 8
  %9 = alloca i32, align 4
  store ptr %0, ptr %5, align 8, !tbaa !6
  store ptr %1, ptr %6, align 8, !tbaa !70
  store ptr %2, ptr %7, align 8, !tbaa !72
  store ptr %3, ptr %8, align 8, !tbaa !72
  %10 = load ptr, ptr %5, align 8
  %11 = load ptr, ptr %6, align 8, !tbaa !70
  store i32 -1, ptr %11, align 4, !tbaa !11
  %12 = load ptr, ptr %7, align 8, !tbaa !72
  store i8 1, ptr %12, align 1, !tbaa !74
  %13 = load ptr, ptr %8, align 8, !tbaa !72
  %14 = icmp ne ptr %13, null
  br i1 %14, label %15, label %17

15:                                               ; preds = %4
  %16 = load ptr, ptr %8, align 8, !tbaa !72
  store i8 0, ptr %16, align 1, !tbaa !74
  br label %17

17:                                               ; preds = %15, %4
  %18 = load ptr, ptr %6, align 8, !tbaa !70
  %19 = load ptr, ptr %7, align 8, !tbaa !72
  %20 = load ptr, ptr %8, align 8, !tbaa !72
  call void @_ZN5Yosys3AST7AstNode21detectSignWidthWorkerERiRbPb(ptr noundef nonnull align 8 dereferenceable(284) %10, ptr noundef nonnull align 4 dereferenceable(4) %18, ptr noundef nonnull align 1 dereferenceable(1) %19, ptr noundef %20)
  call void @llvm.lifetime.start.p0(i64 4, ptr %9) #3
  store i32 16777216, ptr %9, align 4, !tbaa !11
  %21 = load ptr, ptr %6, align 8, !tbaa !70
  %22 = load i32, ptr %21, align 4, !tbaa !11
  %23 = icmp sge i32 %22, 16777216
  br i1 %23, label %24, label %27

24:                                               ; preds = %17
  %25 = load ptr, ptr %6, align 8, !tbaa !70
  %26 = load i32, ptr %25, align 4, !tbaa !11
  call void (ptr, ptr, ...) @_ZNK5Yosys3AST7AstNode11input_errorEPKcz(ptr noundef nonnull align 8 dereferenceable(284) %10, ptr noundef @.str.26, i32 noundef %26, i32 noundef 16777216) #24
  unreachable

27:                                               ; preds = %17
  call void @llvm.lifetime.end.p0(i64 4, ptr %9) #3
  ret void
}

; Function Attrs: inlinehint mustprogress uwtable
define internal void @"_ZZN5Yosys3AST7AstNode21detectSignWidthWorkerERiRbPbENK3$_0clEPS1_"(ptr noundef nonnull align 8 dereferenceable(16) %0, ptr noundef %1) #8 align 2 {
  %3 = alloca ptr, align 8
  %4 = alloca ptr, align 8
  %5 = alloca i32, align 4
  %6 = alloca i8, align 1
  store ptr %0, ptr %3, align 8, !tbaa !111
  store ptr %1, ptr %4, align 8, !tbaa !6
  %7 = load ptr, ptr %3, align 8
  call void @llvm.lifetime.start.p0(i64 4, ptr %5) #3
  store i32 -1, ptr %5, align 4, !tbaa !11
  call void @llvm.lifetime.start.p0(i64 1, ptr %6) #3
  store i8 1, ptr %6, align 1, !tbaa !74
  %8 = load ptr, ptr %4, align 8, !tbaa !6
  call void @_ZN5Yosys3AST7AstNode15detectSignWidthERiRbPb(ptr noundef nonnull align 8 dereferenceable(284) %8, ptr noundef nonnull align 4 dereferenceable(4) %5, ptr noundef nonnull align 1 dereferenceable(1) %6, ptr noundef null)
  %9 = getelementptr inbounds nuw %class.anon, ptr %7, i32 0, i32 0
  %10 = load ptr, ptr %9, align 8, !tbaa !112
  %11 = call noundef nonnull align 4 dereferenceable(4) ptr @_ZSt3maxIiERKT_S2_S2_(ptr noundef nonnull align 4 dereferenceable(4) %10, ptr noundef nonnull align 4 dereferenceable(4) %5)
  %12 = load i32, ptr %11, align 4, !tbaa !11
  %13 = getelementptr inbounds nuw %class.anon, ptr %7, i32 0, i32 0
  %14 = load ptr, ptr %13, align 8, !tbaa !112
  store i32 %12, ptr %14, align 4, !tbaa !11
  %15 = load i8, ptr %6, align 1, !tbaa !74, !range !76, !noundef !77
  %16 = trunc i8 %15 to i1
  %17 = zext i1 %16 to i32
  %18 = getelementptr inbounds nuw %class.anon, ptr %7, i32 0, i32 1
  %19 = load ptr, ptr %18, align 8, !tbaa !114
  %20 = load i8, ptr %19, align 1, !tbaa !74, !range !76, !noundef !77
  %21 = trunc i8 %20 to i1
  %22 = zext i1 %21 to i32
  %23 = and i32 %22, %17
  %24 = icmp ne i32 %23, 0
  %25 = zext i1 %24 to i8
  store i8 %25, ptr %19, align 1, !tbaa !74
  call void @llvm.lifetime.end.p0(i64 1, ptr %6) #3
  call void @llvm.lifetime.end.p0(i64 4, ptr %5) #3
  ret void
}