; Function Attrs: inlinehint mustprogress uwtable
define internal fastcc void @"_ZZN5Yosys3AST7AstNode21detectSignWidthWorkerERiRbPbENK3$_0clEPS1_"(ptr noundef nonnull readonly align 8 captures(none) dereferenceable(16) %0, ptr noundef nonnull %1) unnamed_addr #5 align 2 {
  %3 = alloca i32, align 4
  %4 = alloca i8, align 1
  call void @llvm.lifetime.start.p0(i64 4, ptr nonnull %3) #30
  call void @llvm.lifetime.start.p0(i64 1, ptr nonnull %4) #30
  store i32 -1, ptr %3, align 4, !tbaa !59
  store i8 1, ptr %4, align 1, !tbaa !53
  call void @_ZN5Yosys3AST7AstNode21detectSignWidthWorkerERiRbPb(ptr noundef nonnull align 8 dereferenceable(284) %1, ptr noundef nonnull align 4 dereferenceable(4) %3, ptr noundef nonnull align 1 dereferenceable(1) %4, ptr noundef null)
  %5 = load i32, ptr %3, align 4, !tbaa !59
  %6 = icmp sgt i32 %5, 16777215
  br i1 %6, label %7, label %_ZN5Yosys3AST7AstNode15detectSignWidthERiRbPb.exit

7:                                                ; preds = %2
  call void (ptr, ptr, ...) @_ZNK5Yosys3AST7AstNode11input_errorEPKcz(ptr noundef nonnull align 8 dereferenceable(284) %1, ptr noundef nonnull @.str.26, i32 noundef %5, i32 noundef 16777216) #33
  unreachable

_ZN5Yosys3AST7AstNode15detectSignWidthERiRbPb.exit: ; preds = %2
  %8 = load ptr, ptr %0, align 8, !tbaa !103
  %9 = load i32, ptr %8, align 4, !tbaa !59
  %10 = call i32 @llvm.smax.i32(i32 %9, i32 %5)
  store i32 %10, ptr %8, align 4, !tbaa !59
  %11 = load i8, ptr %4, align 1, !tbaa !53, !range !54, !noundef !55
  %12 = getelementptr inbounds nuw i8, ptr %0, i64 8
  %13 = load ptr, ptr %12, align 8, !tbaa !105
  %14 = load i8, ptr %13, align 1, !tbaa !53, !range !54, !noundef !55
  %15 = and i8 %14, %11
  store i8 %15, ptr %13, align 1, !tbaa !53
  call void @llvm.lifetime.end.p0(i64 1, ptr nonnull %4) #30
  call void @llvm.lifetime.end.p0(i64 4, ptr nonnull %3) #30
  ret void
}